target datalayout = "e-m:e-p270:32:32-p271:32:32-p272:64:64-i64:64-i128:128-f80:128-n8:16:32:64-S128"
target triple = "x86_64-pc-linux-gnu"

%struct.LogicalRepWorker = type { i32, i64, i8, i16, ptr, i32, i32, i32, i32, i8, i64, i8, ptr, i32, i8, i64, i64, i64, i64, i64 }

@MyLogicalRepWorker = external global ptr, align 8
@LogicalStreamingContext = internal global ptr null, align 8
@stream_fd = internal global ptr null, align 8

; Function Attrs: nounwind uwtable
define internal void @stream_close_file() #0 {
  %1 = load ptr, ptr @stream_fd, align 8
  call void @BufFileClose(ptr noundef %1)
  store ptr null, ptr @stream_fd, align 8
  ret void
}

; Function Attrs: nounwind uwtable
define dso_local void @stream_stop_internal(i32 noundef %0) #0 {
  %2 = alloca i32, align 4
  store i32 %0, ptr %2, align 4
  %3 = load ptr, ptr @MyLogicalRepWorker, align 8
  %4 = getelementptr inbounds nuw %struct.LogicalRepWorker, ptr %3, i32 0, i32 7
  %5 = load i32, ptr %4, align 8
  %6 = load i32, ptr %2, align 4
  call void @subxact_info_write(i32 noundef %5, i32 noundef %6)
  call void @stream_close_file()
  call void @CommitTransactionCommand()
  %7 = load ptr, ptr @LogicalStreamingContext, align 8
  call void @MemoryContextReset(ptr noundef %7)
  ret void
}