; Function Attrs: nounwind uwtable
define dso_local void @stream_stop_internal(i32 noundef %0) local_unnamed_addr #0 {
  %2 = load ptr, ptr @MyLogicalRepWorker, align 8
  %3 = getelementptr inbounds nuw i8, ptr %2, i64 40
  %4 = load i32, ptr %3, align 8
  tail call fastcc void @subxact_info_write(i32 noundef %4, i32 noundef %0)
  %5 = load ptr, ptr @stream_fd, align 8
  tail call void @BufFileClose(ptr noundef %5) #17
  store ptr null, ptr @stream_fd, align 8
  tail call void @CommitTransactionCommand() #17
  %6 = load ptr, ptr @LogicalStreamingContext, align 8
  tail call void @MemoryContextReset(ptr noundef %6) #17
  ret void
}